; Function Attrs: mustprogress uwtable
define hidden noundef nonnull align 8 dereferenceable(81) ptr @_ZN11cmd_context17get_recfun_pluginEv(ptr noundef nonnull align 8 dereferenceable(872) %this) local_unnamed_addr #4 align 2 personality ptr @__gxx_personality_v0 {
entry:
  %u = alloca %"class.recfun::util", align 8
  %vtable = load ptr, ptr %this, align 8
  %vfn = getelementptr inbounds i8, ptr %vtable, i64 32
  %0 = load ptr, ptr %vfn, align 8
  %call = tail call noundef nonnull align 8 dereferenceable(976) ptr %0(ptr noundef nonnull align 8 dereferenceable(872) %this)
  call void @_ZN6recfun4utilC1ER11ast_manager(ptr noundef nonnull align 8 dereferenceable(24) %u, ptr noundef nonnull align 8 dereferenceable(976) %call)
  %m_plugin.i = getelementptr inbounds i8, ptr %u, i64 16
  %1 = load ptr, ptr %m_plugin.i, align 8
  call void @_ZN6recfun4utilD1Ev(ptr noundef nonnull align 8 dereferenceable(24) %u) #25
  ret ptr %1
}